#include <math.h>
#include <stdio.h>
#include <stdlib.h>
#include <string.h>
#include <iostream>
using namespace std;

int main()
{
   char x[200],y[200];
   int a,b,i,j,num[200];
   long int n=0;
   cin>>a;
  cin>>x;
   cin>>b;
   int nlen1=strlen(x);
 
   for(i=0;i<=nlen1-1;i++)
   {
       if(x[i]>='0'&&x[i]<='9')
		   num[i]=x[i]-'0';
	   else if(x[i]>='a'&&x[i]<='z')
		   num[i]=x[i]-'a'+10;
	   else if(x[i]>='A'&&x[i]<='Z')
		   num[i]=x[i]-'A'+10;
	   n=n*a+num[i];	}
   for(i=0;;i++)
   {
       num[i]=n%b;
	   n=n/b;
     if(n==0)
     break;
   }
      for(j=i;j>=0;j--)
   {
      if(num[j]>=0&&num[j]<=9)
		  cout<<num[j];
	  else
	  {y[j]=num[j]-10+'A';
	  cout<<y[j];}
   }
   


return 0;
	  
	   
}


